target datalayout = "e-m:e-p270:32:32-p271:32:32-p272:64:64-i64:64-i128:128-f80:128-n8:16:32:64-S128"
target triple = "x86_64-pc-linux-gnu"

%struct.ForEachState = type { ptr, i32 }
%struct.List = type { i32, i32, i32, ptr, [0 x %union.ListCell] }
%union.ListCell = type { ptr }

@sock_paths = internal global ptr null, align 8

; Function Attrs: nounwind uwtable
define dso_local void @RemoveSocketFiles() #0 {
  %1 = alloca ptr, align 8
  %2 = alloca %struct.ForEachState, align 8
  %3 = alloca ptr, align 8
  call void @llvm.lifetime.start.p0(i64 8, ptr %1) #14
  call void @llvm.lifetime.start.p0(i64 16, ptr %2) #14
  %4 = getelementptr inbounds nuw %struct.ForEachState, ptr %2, i32 0, i32 0
  %5 = load ptr, ptr @sock_paths, align 8
  store ptr %5, ptr %4, align 8
  %6 = getelementptr inbounds nuw %struct.ForEachState, ptr %2, i32 0, i32 1
  store i32 0, ptr %6, align 8
  %7 = getelementptr i8, ptr %2, i64 12
  call void @llvm.memset.p0.i64(ptr align 4 %7, i8 0, i64 4, i1 false)
  br label %8

8:                                                ; preds = %39, %0
  %9 = getelementptr inbounds nuw %struct.ForEachState, ptr %2, i32 0, i32 0
  %10 = load ptr, ptr %9, align 8
  %11 = icmp ne ptr %10, null
  br i1 %11, label %12, label %29

12:                                               ; preds = %8
  %13 = getelementptr inbounds nuw %struct.ForEachState, ptr %2, i32 0, i32 1
  %14 = load i32, ptr %13, align 8
  %15 = getelementptr inbounds nuw %struct.ForEachState, ptr %2, i32 0, i32 0
  %16 = load ptr, ptr %15, align 8
  %17 = getelementptr inbounds nuw %struct.List, ptr %16, i32 0, i32 1
  %18 = load i32, ptr %17, align 4
  %19 = icmp slt i32 %14, %18
  br i1 %19, label %20, label %29

20:                                               ; preds = %12
  %21 = getelementptr inbounds nuw %struct.ForEachState, ptr %2, i32 0, i32 0
  %22 = load ptr, ptr %21, align 8
  %23 = getelementptr inbounds nuw %struct.List, ptr %22, i32 0, i32 3
  %24 = load ptr, ptr %23, align 8
  %25 = getelementptr inbounds nuw %struct.ForEachState, ptr %2, i32 0, i32 1
  %26 = load i32, ptr %25, align 8
  %27 = sext i32 %26 to i64
  %28 = getelementptr inbounds %union.ListCell, ptr %24, i64 %27
  store ptr %28, ptr %1, align 8
  br label %30

29:                                               ; preds = %12, %8
  store ptr null, ptr %1, align 8
  br label %30

30:                                               ; preds = %29, %20
  %31 = phi i32 [ 1, %20 ], [ 0, %29 ]
  %32 = icmp ne i32 %31, 0
  br i1 %32, label %34, label %33

33:                                               ; preds = %30
  call void @llvm.lifetime.end.p0(i64 16, ptr %2) #14
  br label %43

34:                                               ; preds = %30
  call void @llvm.lifetime.start.p0(i64 8, ptr %3) #14
  %35 = load ptr, ptr %1, align 8
  %36 = load ptr, ptr %35, align 8
  store ptr %36, ptr %3, align 8
  %37 = load ptr, ptr %3, align 8
  %38 = call i32 @unlink(ptr noundef %37) #14
  call void @llvm.lifetime.end.p0(i64 8, ptr %3) #14
  br label %39

39:                                               ; preds = %34
  %40 = getelementptr inbounds nuw %struct.ForEachState, ptr %2, i32 0, i32 1
  %41 = load i32, ptr %40, align 8
  %42 = add i32 %41, 1
  store i32 %42, ptr %40, align 8
  br label %8, !llvm.loop !8

43:                                               ; preds = %33
  store ptr null, ptr @sock_paths, align 8
  call void @llvm.lifetime.end.p0(i64 8, ptr %1) #14
  ret void
}